target datalayout = "e-m:e-p270:32:32-p271:32:32-p272:64:64-i64:64-i128:128-f80:128-n8:16:32:64-S128"
target triple = "x86_64-pc-linux-gnu"

%struct.OnigSyntaxType = type { i32, i32, i32, i32, %struct.OnigMetaCharTableType }
%struct.OnigMetaCharTableType = type { i32, i32, i32, i32, i32, i32 }
%struct.OnigEncodingTypeST = type { ptr, ptr, i32, i32, ptr, ptr, ptr, ptr, ptr, ptr, ptr, ptr, ptr, ptr, ptr, ptr, ptr, ptr, ptr, i32, i32, i32 }
%struct.ParseEnv = type { i32, i32, ptr, ptr, i32, i32, i32, ptr, ptr, ptr, ptr, ptr, i32, i32, i32, i32, [8 x %struct.MemEnv], ptr, i32, i32, i32, i32, ptr, ptr, i32, i32 }
%struct.MemEnv = type { ptr, ptr }

; Function Attrs: nounwind uwtable
define internal i32 @is_head_of_bre_subexp(ptr noundef %0, ptr noundef %1, ptr noundef %2, ptr noundef %3) #0 {
  %5 = alloca i32, align 4
  %6 = alloca ptr, align 8
  %7 = alloca ptr, align 8
  %8 = alloca ptr, align 8
  %9 = alloca ptr, align 8
  %10 = alloca ptr, align 8
  %11 = alloca i32, align 4
  %12 = alloca i32, align 4
  %13 = alloca i32, align 4
  store ptr %0, ptr %6, align 8, !tbaa !4
  store ptr %1, ptr %7, align 8, !tbaa !4
  store ptr %2, ptr %8, align 8, !tbaa !32
  store ptr %3, ptr %9, align 8, !tbaa !9
  call void @llvm.lifetime.start.p0(i64 8, ptr %10) #8
  call void @llvm.lifetime.start.p0(i64 4, ptr %11) #8
  %14 = load ptr, ptr %9, align 8, !tbaa !9
  %15 = getelementptr inbounds nuw %struct.ParseEnv, ptr %14, i32 0, i32 7
  %16 = load ptr, ptr %15, align 8, !tbaa !159
  store ptr %16, ptr %10, align 8, !tbaa !4
  %17 = load ptr, ptr %6, align 8, !tbaa !4
  %18 = load ptr, ptr %10, align 8, !tbaa !4
  %19 = icmp ugt ptr %17, %18
  br i1 %19, label %20, label %119

20:                                               ; preds = %4
  %21 = load ptr, ptr %8, align 8, !tbaa !32
  %22 = load ptr, ptr %10, align 8, !tbaa !4
  %23 = load ptr, ptr %6, align 8, !tbaa !4
  %24 = call ptr @onigenc_get_prev_char_head(ptr noundef %21, ptr noundef %22, ptr noundef %23)
  store ptr %24, ptr %6, align 8, !tbaa !4
  %25 = load ptr, ptr %6, align 8, !tbaa !4
  %26 = load ptr, ptr %10, align 8, !tbaa !4
  %27 = icmp ugt ptr %25, %26
  br i1 %27, label %28, label %118

28:                                               ; preds = %20
  %29 = load ptr, ptr %8, align 8, !tbaa !32
  %30 = getelementptr inbounds nuw %struct.OnigEncodingTypeST, ptr %29, i32 0, i32 5
  %31 = load ptr, ptr %30, align 8, !tbaa !92
  %32 = load ptr, ptr %6, align 8, !tbaa !4
  %33 = load ptr, ptr %7, align 8, !tbaa !4
  %34 = call i32 %31(ptr noundef %32, ptr noundef %33)
  store i32 %34, ptr %11, align 4, !tbaa !10
  %35 = load i32, ptr %11, align 4, !tbaa !10
  %36 = icmp eq i32 %35, 40
  br i1 %36, label %48, label %37

37:                                               ; preds = %28
  %38 = load i32, ptr %11, align 4, !tbaa !10
  %39 = icmp eq i32 %38, 124
  br i1 %39, label %40, label %117

40:                                               ; preds = %37
  %41 = load ptr, ptr %9, align 8, !tbaa !9
  %42 = getelementptr inbounds nuw %struct.ParseEnv, ptr %41, i32 0, i32 3
  %43 = load ptr, ptr %42, align 8, !tbaa !158
  %44 = getelementptr inbounds nuw %struct.OnigSyntaxType, ptr %43, i32 0, i32 0
  %45 = load i32, ptr %44, align 4, !tbaa !197
  %46 = and i32 %45, 2048
  %47 = icmp ne i32 %46, 0
  br i1 %47, label %48, label %117

48:                                               ; preds = %40, %28
  %49 = load ptr, ptr %8, align 8, !tbaa !32
  %50 = load ptr, ptr %10, align 8, !tbaa !4
  %51 = load ptr, ptr %6, align 8, !tbaa !4
  %52 = call ptr @onigenc_get_prev_char_head(ptr noundef %49, ptr noundef %50, ptr noundef %51)
  store ptr %52, ptr %6, align 8, !tbaa !4
  %53 = load ptr, ptr %8, align 8, !tbaa !32
  %54 = getelementptr inbounds nuw %struct.OnigEncodingTypeST, ptr %53, i32 0, i32 5
  %55 = load ptr, ptr %54, align 8, !tbaa !92
  %56 = load ptr, ptr %6, align 8, !tbaa !4
  %57 = load ptr, ptr %7, align 8, !tbaa !4
  %58 = call i32 %55(ptr noundef %56, ptr noundef %57)
  store i32 %58, ptr %11, align 4, !tbaa !10
  %59 = load i32, ptr %11, align 4, !tbaa !10
  %60 = load ptr, ptr %9, align 8, !tbaa !9
  %61 = getelementptr inbounds nuw %struct.ParseEnv, ptr %60, i32 0, i32 3
  %62 = load ptr, ptr %61, align 8, !tbaa !158
  %63 = getelementptr inbounds nuw %struct.OnigSyntaxType, ptr %62, i32 0, i32 4
  %64 = getelementptr inbounds nuw %struct.OnigMetaCharTableType, ptr %63, i32 0, i32 0
  %65 = load i32, ptr %64, align 4, !tbaa !194
  %66 = icmp eq i32 %59, %65
  br i1 %66, label %67, label %116

67:                                               ; preds = %48
  %68 = load ptr, ptr %9, align 8, !tbaa !9
  %69 = getelementptr inbounds nuw %struct.ParseEnv, ptr %68, i32 0, i32 3
  %70 = load ptr, ptr %69, align 8, !tbaa !158
  %71 = getelementptr inbounds nuw %struct.OnigSyntaxType, ptr %70, i32 0, i32 1
  %72 = load i32, ptr %71, align 4, !tbaa !195
  %73 = and i32 %72, 1048576
  %74 = icmp ne i32 %73, 0
  br i1 %74, label %116, label %75

75:                                               ; preds = %67
  call void @llvm.lifetime.start.p0(i64 4, ptr %12) #8
  store i32 0, ptr %12, align 4, !tbaa !10
  br label %76

76:                                               ; preds = %108, %75
  %77 = load ptr, ptr %6, align 8, !tbaa !4
  %78 = load ptr, ptr %10, align 8, !tbaa !4
  %79 = icmp ugt ptr %77, %78
  br i1 %79, label %80, label %111

80:                                               ; preds = %76
  %81 = load ptr, ptr %8, align 8, !tbaa !32
  %82 = load ptr, ptr %10, align 8, !tbaa !4
  %83 = load ptr, ptr %6, align 8, !tbaa !4
  %84 = call ptr @onigenc_get_prev_char_head(ptr noundef %81, ptr noundef %82, ptr noundef %83)
  store ptr %84, ptr %6, align 8, !tbaa !4
  %85 = load ptr, ptr %8, align 8, !tbaa !32
  %86 = getelementptr inbounds nuw %struct.OnigEncodingTypeST, ptr %85, i32 0, i32 5
  %87 = load ptr, ptr %86, align 8, !tbaa !92
  %88 = load ptr, ptr %6, align 8, !tbaa !4
  %89 = load ptr, ptr %7, align 8, !tbaa !4
  %90 = call i32 %87(ptr noundef %88, ptr noundef %89)
  store i32 %90, ptr %11, align 4, !tbaa !10
  %91 = load i32, ptr %11, align 4, !tbaa !10
  %92 = load ptr, ptr %9, align 8, !tbaa !9
  %93 = getelementptr inbounds nuw %struct.ParseEnv, ptr %92, i32 0, i32 3
  %94 = load ptr, ptr %93, align 8, !tbaa !158
  %95 = getelementptr inbounds nuw %struct.OnigSyntaxType, ptr %94, i32 0, i32 4
  %96 = getelementptr inbounds nuw %struct.OnigMetaCharTableType, ptr %95, i32 0, i32 0
  %97 = load i32, ptr %96, align 4, !tbaa !194
  %98 = icmp eq i32 %91, %97
  br i1 %98, label %99, label %107

99:                                               ; preds = %80
  %100 = load ptr, ptr %9, align 8, !tbaa !9
  %101 = getelementptr inbounds nuw %struct.ParseEnv, ptr %100, i32 0, i32 3
  %102 = load ptr, ptr %101, align 8, !tbaa !158
  %103 = getelementptr inbounds nuw %struct.OnigSyntaxType, ptr %102, i32 0, i32 1
  %104 = load i32, ptr %103, align 4, !tbaa !195
  %105 = and i32 %104, 1048576
  %106 = icmp ne i32 %105, 0
  br i1 %106, label %107, label %108

107:                                              ; preds = %99, %80
  br label %111

108:                                              ; preds = %99
  %109 = load i32, ptr %12, align 4, !tbaa !10
  %110 = add nsw i32 %109, 1
  store i32 %110, ptr %12, align 4, !tbaa !10
  br label %76, !llvm.loop !218

111:                                              ; preds = %107, %76
  %112 = load i32, ptr %12, align 4, !tbaa !10
  %113 = srem i32 %112, 2
  %114 = icmp eq i32 %113, 0
  %115 = zext i1 %114 to i32
  store i32 %115, ptr %5, align 4
  store i32 1, ptr %13, align 4
  call void @llvm.lifetime.end.p0(i64 4, ptr %12) #8
  br label %120

116:                                              ; preds = %67, %48
  br label %117

117:                                              ; preds = %116, %40, %37
  br label %118

118:                                              ; preds = %117, %20
  store i32 0, ptr %5, align 4
  store i32 1, ptr %13, align 4
  br label %120

119:                                              ; preds = %4
  store i32 1, ptr %5, align 4
  store i32 1, ptr %13, align 4
  br label %120

120:                                              ; preds = %119, %118, %111
  call void @llvm.lifetime.end.p0(i64 4, ptr %11) #8
  call void @llvm.lifetime.end.p0(i64 8, ptr %10) #8
  %121 = load i32, ptr %5, align 4
  ret i32 %121
}