; Function Attrs: nounwind uwtable
define internal fastcc range(i32 0, 2) i32 @is_head_of_bre_subexp(ptr noundef %0, ptr noundef %1, ptr noundef %2, ptr noundef readonly captures(none) %3) unnamed_addr #2 {
  %5 = getelementptr inbounds nuw i8, ptr %3, i64 40
  %6 = load ptr, ptr %5, align 8, !tbaa !145
  %7 = icmp ugt ptr %0, %6
  br i1 %7, label %8, label %._crit_edge

8:                                                ; preds = %4
  %9 = tail call ptr @onigenc_get_prev_char_head(ptr noundef %2, ptr noundef %6, ptr noundef nonnull %0) #25
  %10 = icmp ugt ptr %9, %6
  br i1 %10, label %11, label %._crit_edge

11:                                               ; preds = %8
  %12 = getelementptr inbounds nuw i8, ptr %2, i64 32
  %13 = load ptr, ptr %12, align 8, !tbaa !80
  %14 = tail call i32 %13(ptr noundef nonnull %9, ptr noundef %1) #25
  switch i32 %14, label %._crit_edge [
    i32 40, label %20
    i32 124, label %15
  ]

15:                                               ; preds = %11
  %16 = getelementptr inbounds nuw i8, ptr %3, i64 16
  %17 = load ptr, ptr %16, align 8, !tbaa !144
  %18 = load i32, ptr %17, align 4, !tbaa !169
  %19 = and i32 %18, 2048
  %.not = icmp eq i32 %19, 0
  br i1 %.not, label %._crit_edge, label %20

20:                                               ; preds = %11, %15
  %21 = tail call ptr @onigenc_get_prev_char_head(ptr noundef nonnull %2, ptr noundef %6, ptr noundef nonnull %9) #25
  %22 = load ptr, ptr %12, align 8, !tbaa !80
  %23 = tail call i32 %22(ptr noundef %21, ptr noundef %1) #25
  %24 = getelementptr inbounds nuw i8, ptr %3, i64 16
  %25 = load ptr, ptr %24, align 8, !tbaa !144
  %26 = getelementptr inbounds nuw i8, ptr %25, i64 16
  %27 = load i32, ptr %26, align 4, !tbaa !166
  %28 = icmp eq i32 %23, %27
  br i1 %28, label %29, label %._crit_edge

29:                                               ; preds = %20
  %30 = getelementptr inbounds nuw i8, ptr %25, i64 4
  %31 = load i32, ptr %30, align 4, !tbaa !167
  %32 = and i32 %31, 1048576
  %.not42 = icmp eq i32 %32, 0
  br i1 %.not42, label %.preheader, label %._crit_edge

.preheader:                                       ; preds = %29
  %33 = icmp ugt ptr %21, %6
  br i1 %33, label %.lr.ph, label %._crit_edge

.lr.ph:                                           ; preds = %.preheader, %45
  %.045 = phi i32 [ %46, %45 ], [ 0, %.preheader ]
  %.03744 = phi ptr [ %34, %45 ], [ %21, %.preheader ]
  %34 = tail call ptr @onigenc_get_prev_char_head(ptr noundef nonnull %2, ptr noundef %6, ptr noundef nonnull %.03744) #25
  %35 = load ptr, ptr %12, align 8, !tbaa !80
  %36 = tail call i32 %35(ptr noundef %34, ptr noundef %1) #25
  %37 = load ptr, ptr %24, align 8, !tbaa !144
  %38 = getelementptr inbounds nuw i8, ptr %37, i64 16
  %39 = load i32, ptr %38, align 4, !tbaa !166
  %40 = icmp eq i32 %36, %39
  br i1 %40, label %41, label %._crit_edge.loopexit

41:                                               ; preds = %.lr.ph
  %42 = getelementptr inbounds nuw i8, ptr %37, i64 4
  %43 = load i32, ptr %42, align 4, !tbaa !167
  %44 = and i32 %43, 1048576
  %.not43 = icmp eq i32 %44, 0
  br i1 %.not43, label %45, label %._crit_edge.loopexit

45:                                               ; preds = %41
  %46 = add nuw nsw i32 %.045, 1
  %47 = icmp ugt ptr %34, %6
  br i1 %47, label %.lr.ph, label %._crit_edge.loopexit, !llvm.loop !187

._crit_edge.loopexit:                             ; preds = %.lr.ph, %41, %45
  %.0.lcssa.ph = phi i32 [ %46, %45 ], [ %.045, %41 ], [ %.045, %.lr.ph ]
  %48 = and i32 %.0.lcssa.ph, 1
  %49 = xor i32 %48, 1
  br label %._crit_edge

._crit_edge:                                      ; preds = %.preheader, %._crit_edge.loopexit, %4, %8, %20, %29, %15, %11
  %.036 = phi i32 [ 0, %11 ], [ 0, %15 ], [ 0, %29 ], [ 0, %20 ], [ 0, %8 ], [ 1, %4 ], [ 1, %.preheader ], [ %49, %._crit_edge.loopexit ]
  ret i32 %.036
}